#include <math.h>
#include <stdio.h>
#include <stdlib.h>
#include <string.h>
#include <iostream>
using namespace std;

int main()
{
	int n,i,m,j;
	double a[1001],*p=NULL,s=0,ss=0;
	cin>>n;
	for(i=0;i<n;i++)
	{
		p=a;
		cin>>m;
		for(j=0;j<m;j++)
		{
			cin>>*(p+j);
			s+=*(p+j);
		}
		s/=m;
		for(j=0;j<m;j++)
		{
			ss+=pow(*(p+j)-s,2);
		}
		ss/=m;
		ss=sqrt(ss);
		printf("%.5lf\n",ss);
		s=0;ss=0;
	}
	return 0;
}